; Function Attrs: mustprogress uwtable
define hidden void @_ZN8facebook6hermes7tracing14TracingRuntime16setPropertyValueERKNS_3jsi6ObjectERKNS3_6StringERKNS3_5ValueE(ptr noundef nonnull align 8 dereferenceable(172) %this, ptr noundef nonnull align 8 dereferenceable(8) %obj, ptr noundef nonnull align 8 dereferenceable(8) %name, ptr noundef nonnull align 8 dereferenceable(16) %value) unnamed_addr #0 align 2 {
entry:
  %ref.tmp = alloca %"class.std::chrono::duration.37", align 8
  %ref.tmp2 = alloca i64, align 8
  %ref.tmp4 = alloca %"class.facebook::hermes::tracing::SynthTrace::TraceValue", align 8
  %ref.tmp9 = alloca %"class.facebook::hermes::tracing::SynthTrace::TraceValue", align 8
  %trace_ = getelementptr inbounds i8, ptr %this, i64 32
  %call.i = tail call i64 @_ZNSt6chrono3_V212steady_clock3nowEv() #27
  %startTime_.i = getelementptr inbounds i8, ptr %this, i64 160
  %retval.sroa.0.0.copyload.i1.i.i = load i64, ptr %startTime_.i, align 8
  %sub.i.i.i = sub nsw i64 %call.i, %retval.sroa.0.0.copyload.i1.i.i
  %div.i.i.i = sdiv i64 %sub.i.i.i, 1000000
  store i64 %div.i.i.i, ptr %ref.tmp, align 8
  %vtable = load ptr, ptr %this, align 8
  %vfn = getelementptr inbounds i8, ptr %vtable, i64 664
  %0 = load ptr, ptr %vfn, align 8
  %call3 = tail call noundef i64 %0(ptr noundef nonnull align 8 dereferenceable(172) %this, ptr noundef nonnull align 8 dereferenceable(8) %obj)
  store i64 %call3, ptr %ref.tmp2, align 8
  %vtable5 = load ptr, ptr %this, align 8
  %vfn6 = getelementptr inbounds i8, ptr %vtable5, i64 680
  %1 = load ptr, ptr %vfn6, align 8
  %call7 = tail call noundef i64 %1(ptr noundef nonnull align 8 dereferenceable(172) %this, ptr noundef nonnull align 8 dereferenceable(8) %name)
  %call8 = tail call { i32, i64 } @_ZN8facebook6hermes7tracing10SynthTrace12encodeStringEm(i64 noundef %call7)
  %2 = extractvalue { i32, i64 } %call8, 0
  store i32 %2, ptr %ref.tmp4, align 8
  %3 = getelementptr inbounds i8, ptr %ref.tmp4, i64 8
  %4 = extractvalue { i32, i64 } %call8, 1
  store i64 %4, ptr %3, align 8
  %call10 = tail call { i32, i64 } @_ZN8facebook6hermes7tracing14TracingRuntime12toTraceValueERKNS_3jsi5ValueE(ptr noundef nonnull align 8 dereferenceable(172) %this, ptr noundef nonnull align 8 dereferenceable(16) %value)
  %5 = extractvalue { i32, i64 } %call10, 0
  store i32 %5, ptr %ref.tmp9, align 8
  %6 = getelementptr inbounds i8, ptr %ref.tmp9, i64 8
  %7 = extractvalue { i32, i64 } %call10, 1
  store i64 %7, ptr %6, align 8
  call void @_ZN8facebook6hermes7tracing10SynthTrace12emplace_backINS2_17SetPropertyRecordEJNSt6chrono8durationIlSt5ratioILl1ELl1000EEEEmNS2_10TraceValueESA_EEEvDpOT0_(ptr noundef nonnull align 8 dereferenceable(48) %trace_, ptr noundef nonnull align 8 dereferenceable(8) %ref.tmp, ptr noundef nonnull align 8 dereferenceable(8) %ref.tmp2, ptr noundef nonnull align 8 dereferenceable(16) %ref.tmp4, ptr noundef nonnull align 8 dereferenceable(16) %ref.tmp9)
  %plain_.i = getelementptr inbounds i8, ptr %this, i64 16
  %8 = load ptr, ptr %plain_.i, align 8
  %vtable.i = load ptr, ptr %8, align 8
  %vfn.i = getelementptr inbounds i8, ptr %vtable.i, i64 352
  %9 = load ptr, ptr %vfn.i, align 8
  call void %9(ptr noundef nonnull align 8 dereferenceable(8) %8, ptr noundef nonnull align 8 dereferenceable(8) %obj, ptr noundef nonnull align 8 dereferenceable(8) %name, ptr noundef nonnull align 8 dereferenceable(16) %value)
  ret void
}